target datalayout = "e-m:e-p270:32:32-p271:32:32-p272:64:64-i64:64-i128:128-f80:128-n8:16:32:64-S128"
target triple = "x86_64-pc-linux-gnu"

%struct.pmix_tma = type { ptr, ptr, ptr, ptr, ptr, ptr, ptr, ptr }
%struct.pmix_proc = type { [256 x i8], i32 }
%struct.pmix_proc_stats = type { ptr, %struct.pmix_proc, i32, ptr, i8, %struct.timeval, float, i32, i16, float, float, float, float, i16, %struct.timeval }
%struct.timeval = type { i64, i64 }

; Function Attrs: inlinehint nounwind uwtable
define internal ptr @pmix_tma_strdup(ptr noundef %0, ptr noundef %1) #8 {
  %3 = alloca ptr, align 8
  %4 = alloca ptr, align 8
  %5 = alloca ptr, align 8
  store ptr %0, ptr %4, align 8, !tbaa !66
  store ptr %1, ptr %5, align 8, !tbaa !14
  %6 = load ptr, ptr %4, align 8, !tbaa !66
  %7 = icmp ne ptr null, %6
  br i1 %7, label %8, label %15

8:                                                ; preds = %2
  %9 = load ptr, ptr %4, align 8, !tbaa !66
  %10 = getelementptr inbounds nuw %struct.pmix_tma, ptr %9, i32 0, i32 3
  %11 = load ptr, ptr %10, align 8, !tbaa !263
  %12 = load ptr, ptr %4, align 8, !tbaa !66
  %13 = load ptr, ptr %5, align 8, !tbaa !14
  %14 = call ptr %11(ptr noundef %12, ptr noundef %13)
  store ptr %14, ptr %3, align 8
  br label %18

15:                                               ; preds = %2
  %16 = load ptr, ptr %5, align 8, !tbaa !14
  %17 = call noalias ptr @strdup(ptr noundef %16) #15
  store ptr %17, ptr %3, align 8
  br label %18

18:                                               ; preds = %15, %8
  %19 = load ptr, ptr %3, align 8
  ret ptr %19
}

; Function Attrs: inlinehint nounwind uwtable
define internal void @pmix_bfrops_base_tma_proc_stats_construct(ptr noundef %0, ptr noundef %1) #8 {
  %3 = alloca ptr, align 8
  %4 = alloca ptr, align 8
  store ptr %0, ptr %3, align 8, !tbaa !54
  store ptr %1, ptr %4, align 8, !tbaa !66
  %5 = load ptr, ptr %3, align 8, !tbaa !54
  call void @llvm.memset.p0.i64(ptr align 8 %5, i8 0, i64 352, i1 false)
  ret void
}

; Function Attrs: inlinehint nounwind uwtable
define internal ptr @pmix_tma_malloc(ptr noundef %0, i64 noundef %1) #8 {
  %3 = alloca ptr, align 8
  %4 = alloca ptr, align 8
  %5 = alloca i64, align 8
  store ptr %0, ptr %4, align 8, !tbaa !66
  store i64 %1, ptr %5, align 8, !tbaa !58
  %6 = load ptr, ptr %4, align 8, !tbaa !66
  %7 = icmp ne ptr null, %6
  br i1 %7, label %8, label %15

8:                                                ; preds = %2
  %9 = load ptr, ptr %4, align 8, !tbaa !66
  %10 = getelementptr inbounds nuw %struct.pmix_tma, ptr %9, i32 0, i32 0
  %11 = load ptr, ptr %10, align 8, !tbaa !265
  %12 = load ptr, ptr %4, align 8, !tbaa !66
  %13 = load i64, ptr %5, align 8, !tbaa !58
  %14 = call ptr %11(ptr noundef %12, i64 noundef %13)
  store ptr %14, ptr %3, align 8
  br label %18

15:                                               ; preds = %2
  %16 = load i64, ptr %5, align 8, !tbaa !58
  %17 = call noalias ptr @malloc(i64 noundef %16) #16
  store ptr %17, ptr %3, align 8
  br label %18

18:                                               ; preds = %15, %8
  %19 = load ptr, ptr %3, align 8
  ret ptr %19
}

; Function Attrs: inlinehint nounwind uwtable
define internal void @pmix_bfrops_base_tma_populate_pstats(ptr noundef %0, ptr noundef %1, ptr noundef %2) #8 {
  %4 = alloca ptr, align 8
  %5 = alloca ptr, align 8
  %6 = alloca ptr, align 8
  store ptr %0, ptr %4, align 8, !tbaa !54
  store ptr %1, ptr %5, align 8, !tbaa !54
  store ptr %2, ptr %6, align 8, !tbaa !66
  %7 = load ptr, ptr %5, align 8, !tbaa !54
  %8 = getelementptr inbounds nuw %struct.pmix_proc_stats, ptr %7, i32 0, i32 0
  %9 = load ptr, ptr %8, align 8, !tbaa !170
  %10 = icmp ne ptr null, %9
  br i1 %10, label %11, label %19

11:                                               ; preds = %3
  %12 = load ptr, ptr %6, align 8, !tbaa !66
  %13 = load ptr, ptr %5, align 8, !tbaa !54
  %14 = getelementptr inbounds nuw %struct.pmix_proc_stats, ptr %13, i32 0, i32 0
  %15 = load ptr, ptr %14, align 8, !tbaa !170
  %16 = call ptr @pmix_tma_strdup(ptr noundef %12, ptr noundef %15)
  %17 = load ptr, ptr %4, align 8, !tbaa !54
  %18 = getelementptr inbounds nuw %struct.pmix_proc_stats, ptr %17, i32 0, i32 0
  store ptr %16, ptr %18, align 8, !tbaa !170
  br label %19

19:                                               ; preds = %11, %3
  %20 = load ptr, ptr %4, align 8, !tbaa !54
  %21 = getelementptr inbounds nuw %struct.pmix_proc_stats, ptr %20, i32 0, i32 1
  %22 = load ptr, ptr %5, align 8, !tbaa !54
  %23 = getelementptr inbounds nuw %struct.pmix_proc_stats, ptr %22, i32 0, i32 1
  call void @llvm.memcpy.p0.p0.i64(ptr align 8 %21, ptr align 8 %23, i64 260, i1 false)
  %24 = load ptr, ptr %5, align 8, !tbaa !54
  %25 = getelementptr inbounds nuw %struct.pmix_proc_stats, ptr %24, i32 0, i32 2
  %26 = load i32, ptr %25, align 4, !tbaa !347
  %27 = load ptr, ptr %4, align 8, !tbaa !54
  %28 = getelementptr inbounds nuw %struct.pmix_proc_stats, ptr %27, i32 0, i32 2
  store i32 %26, ptr %28, align 4, !tbaa !347
  %29 = load ptr, ptr %5, align 8, !tbaa !54
  %30 = getelementptr inbounds nuw %struct.pmix_proc_stats, ptr %29, i32 0, i32 3
  %31 = load ptr, ptr %30, align 8, !tbaa !174
  %32 = icmp ne ptr null, %31
  br i1 %32, label %33, label %41

33:                                               ; preds = %19
  %34 = load ptr, ptr %6, align 8, !tbaa !66
  %35 = load ptr, ptr %5, align 8, !tbaa !54
  %36 = getelementptr inbounds nuw %struct.pmix_proc_stats, ptr %35, i32 0, i32 3
  %37 = load ptr, ptr %36, align 8, !tbaa !174
  %38 = call ptr @pmix_tma_strdup(ptr noundef %34, ptr noundef %37)
  %39 = load ptr, ptr %4, align 8, !tbaa !54
  %40 = getelementptr inbounds nuw %struct.pmix_proc_stats, ptr %39, i32 0, i32 3
  store ptr %38, ptr %40, align 8, !tbaa !174
  br label %41

41:                                               ; preds = %33, %19
  %42 = load ptr, ptr %5, align 8, !tbaa !54
  %43 = getelementptr inbounds nuw %struct.pmix_proc_stats, ptr %42, i32 0, i32 4
  %44 = load i8, ptr %43, align 8, !tbaa !348
  %45 = load ptr, ptr %4, align 8, !tbaa !54
  %46 = getelementptr inbounds nuw %struct.pmix_proc_stats, ptr %45, i32 0, i32 4
  store i8 %44, ptr %46, align 8, !tbaa !348
  %47 = load ptr, ptr %4, align 8, !tbaa !54
  %48 = getelementptr inbounds nuw %struct.pmix_proc_stats, ptr %47, i32 0, i32 5
  %49 = load ptr, ptr %5, align 8, !tbaa !54
  %50 = getelementptr inbounds nuw %struct.pmix_proc_stats, ptr %49, i32 0, i32 5
  call void @llvm.memcpy.p0.p0.i64(ptr align 8 %48, ptr align 8 %50, i64 16, i1 false), !tbaa.struct !349
  %51 = load ptr, ptr %5, align 8, !tbaa !54
  %52 = getelementptr inbounds nuw %struct.pmix_proc_stats, ptr %51, i32 0, i32 7
  %53 = load i32, ptr %52, align 4, !tbaa !350
  %54 = load ptr, ptr %4, align 8, !tbaa !54
  %55 = getelementptr inbounds nuw %struct.pmix_proc_stats, ptr %54, i32 0, i32 7
  store i32 %53, ptr %55, align 4, !tbaa !350
  %56 = load ptr, ptr %5, align 8, !tbaa !54
  %57 = getelementptr inbounds nuw %struct.pmix_proc_stats, ptr %56, i32 0, i32 8
  %58 = load i16, ptr %57, align 8, !tbaa !351
  %59 = load ptr, ptr %4, align 8, !tbaa !54
  %60 = getelementptr inbounds nuw %struct.pmix_proc_stats, ptr %59, i32 0, i32 8
  store i16 %58, ptr %60, align 8, !tbaa !351
  %61 = load ptr, ptr %5, align 8, !tbaa !54
  %62 = getelementptr inbounds nuw %struct.pmix_proc_stats, ptr %61, i32 0, i32 9
  %63 = load float, ptr %62, align 4, !tbaa !352
  %64 = load ptr, ptr %4, align 8, !tbaa !54
  %65 = getelementptr inbounds nuw %struct.pmix_proc_stats, ptr %64, i32 0, i32 9
  store float %63, ptr %65, align 4, !tbaa !352
  %66 = load ptr, ptr %5, align 8, !tbaa !54
  %67 = getelementptr inbounds nuw %struct.pmix_proc_stats, ptr %66, i32 0, i32 10
  %68 = load float, ptr %67, align 8, !tbaa !353
  %69 = load ptr, ptr %4, align 8, !tbaa !54
  %70 = getelementptr inbounds nuw %struct.pmix_proc_stats, ptr %69, i32 0, i32 10
  store float %68, ptr %70, align 8, !tbaa !353
  %71 = load ptr, ptr %5, align 8, !tbaa !54
  %72 = getelementptr inbounds nuw %struct.pmix_proc_stats, ptr %71, i32 0, i32 11
  %73 = load float, ptr %72, align 4, !tbaa !354
  %74 = load ptr, ptr %4, align 8, !tbaa !54
  %75 = getelementptr inbounds nuw %struct.pmix_proc_stats, ptr %74, i32 0, i32 11
  store float %73, ptr %75, align 4, !tbaa !354
  %76 = load ptr, ptr %5, align 8, !tbaa !54
  %77 = getelementptr inbounds nuw %struct.pmix_proc_stats, ptr %76, i32 0, i32 12
  %78 = load float, ptr %77, align 8, !tbaa !355
  %79 = load ptr, ptr %4, align 8, !tbaa !54
  %80 = getelementptr inbounds nuw %struct.pmix_proc_stats, ptr %79, i32 0, i32 12
  store float %78, ptr %80, align 8, !tbaa !355
  %81 = load ptr, ptr %5, align 8, !tbaa !54
  %82 = getelementptr inbounds nuw %struct.pmix_proc_stats, ptr %81, i32 0, i32 13
  %83 = load i16, ptr %82, align 4, !tbaa !356
  %84 = load ptr, ptr %4, align 8, !tbaa !54
  %85 = getelementptr inbounds nuw %struct.pmix_proc_stats, ptr %84, i32 0, i32 13
  store i16 %83, ptr %85, align 4, !tbaa !356
  %86 = load ptr, ptr %5, align 8, !tbaa !54
  %87 = getelementptr inbounds nuw %struct.pmix_proc_stats, ptr %86, i32 0, i32 14
  %88 = getelementptr inbounds nuw %struct.timeval, ptr %87, i32 0, i32 0
  %89 = load i64, ptr %88, align 8, !tbaa !357
  %90 = load ptr, ptr %4, align 8, !tbaa !54
  %91 = getelementptr inbounds nuw %struct.pmix_proc_stats, ptr %90, i32 0, i32 14
  %92 = getelementptr inbounds nuw %struct.timeval, ptr %91, i32 0, i32 0
  store i64 %89, ptr %92, align 8, !tbaa !357
  %93 = load ptr, ptr %5, align 8, !tbaa !54
  %94 = getelementptr inbounds nuw %struct.pmix_proc_stats, ptr %93, i32 0, i32 14
  %95 = getelementptr inbounds nuw %struct.timeval, ptr %94, i32 0, i32 1
  %96 = load i64, ptr %95, align 8, !tbaa !358
  %97 = load ptr, ptr %4, align 8, !tbaa !54
  %98 = getelementptr inbounds nuw %struct.pmix_proc_stats, ptr %97, i32 0, i32 14
  %99 = getelementptr inbounds nuw %struct.timeval, ptr %98, i32 0, i32 1
  store i64 %96, ptr %99, align 8, !tbaa !358
  ret void
}

; Function Attrs: inlinehint nounwind uwtable
define internal ptr @pmix_bfrops_base_tma_proc_stats_create(i64 noundef %0, ptr noundef %1) #8 {
  %3 = alloca ptr, align 8
  %4 = alloca i64, align 8
  %5 = alloca ptr, align 8
  %6 = alloca ptr, align 8
  %7 = alloca i64, align 8
  store i64 %0, ptr %4, align 8, !tbaa !58
  store ptr %1, ptr %5, align 8, !tbaa !66
  %8 = load i64, ptr %4, align 8, !tbaa !58
  %9 = icmp eq i64 0, %8
  br i1 %9, label %10, label %11

10:                                               ; preds = %2
  store ptr null, ptr %3, align 8
  br label %41

11:                                               ; preds = %2
  call void @llvm.lifetime.start.p0(i64 8, ptr %6) #15
  %12 = load ptr, ptr %5, align 8, !tbaa !66
  %13 = load i64, ptr %4, align 8, !tbaa !58
  %14 = mul i64 %13, 352
  %15 = call ptr @pmix_tma_malloc(ptr noundef %12, i64 noundef %14)
  store ptr %15, ptr %6, align 8, !tbaa !54
  %16 = load ptr, ptr %6, align 8, !tbaa !54
  %17 = icmp ne ptr null, %16
  %18 = xor i1 %17, true
  %19 = xor i1 %18, true
  %20 = zext i1 %19 to i32
  %21 = sext i32 %20 to i64
  %22 = call i64 @llvm.expect.i64(i64 %21, i64 1)
  %23 = icmp ne i64 %22, 0
  br i1 %23, label %24, label %39

24:                                               ; preds = %11
  call void @llvm.lifetime.start.p0(i64 8, ptr %7) #15
  store i64 0, ptr %7, align 8, !tbaa !58
  br label %25

25:                                               ; preds = %35, %24
  %26 = load i64, ptr %7, align 8, !tbaa !58
  %27 = load i64, ptr %4, align 8, !tbaa !58
  %28 = icmp ult i64 %26, %27
  br i1 %28, label %30, label %29

29:                                               ; preds = %25
  call void @llvm.lifetime.end.p0(i64 8, ptr %7) #15
  br label %38

30:                                               ; preds = %25
  %31 = load ptr, ptr %6, align 8, !tbaa !54
  %32 = load i64, ptr %7, align 8, !tbaa !58
  %33 = getelementptr inbounds nuw %struct.pmix_proc_stats, ptr %31, i64 %32
  %34 = load ptr, ptr %5, align 8, !tbaa !66
  call void @pmix_bfrops_base_tma_proc_stats_construct(ptr noundef %33, ptr noundef %34)
  br label %35

35:                                               ; preds = %30
  %36 = load i64, ptr %7, align 8, !tbaa !58
  %37 = add i64 %36, 1
  store i64 %37, ptr %7, align 8, !tbaa !58
  br label %25, !llvm.loop !346

38:                                               ; preds = %29
  br label %39

39:                                               ; preds = %38, %11
  %40 = load ptr, ptr %6, align 8, !tbaa !54
  store ptr %40, ptr %3, align 8
  call void @llvm.lifetime.end.p0(i64 8, ptr %6) #15
  br label %41

41:                                               ; preds = %39, %10
  %42 = load ptr, ptr %3, align 8
  ret ptr %42
}

; Function Attrs: inlinehint nounwind uwtable
define internal i32 @pmix_bfrops_base_tma_copy_pstats(ptr noundef %0, ptr noundef %1, i16 noundef zeroext %2, ptr noundef %3) #8 {
  %5 = alloca i32, align 4
  %6 = alloca ptr, align 8
  %7 = alloca ptr, align 8
  %8 = alloca i16, align 2
  %9 = alloca ptr, align 8
  %10 = alloca ptr, align 8
  %11 = alloca i32, align 4
  store ptr %0, ptr %6, align 8, !tbaa !321
  store ptr %1, ptr %7, align 8, !tbaa !54
  store i16 %2, ptr %8, align 2, !tbaa !9
  store ptr %3, ptr %9, align 8, !tbaa !66
  call void @llvm.lifetime.start.p0(i64 8, ptr %10) #15
  %12 = load ptr, ptr %9, align 8, !tbaa !66
  %13 = call ptr @pmix_bfrops_base_tma_proc_stats_create(i64 noundef 1, ptr noundef %12)
  store ptr %13, ptr %10, align 8, !tbaa !54
  %14 = load ptr, ptr %10, align 8, !tbaa !54
  %15 = icmp eq ptr null, %14
  %16 = xor i1 %15, true
  %17 = xor i1 %16, true
  %18 = zext i1 %17 to i32
  %19 = sext i32 %18 to i64
  %20 = call i64 @llvm.expect.i64(i64 %19, i64 0)
  %21 = icmp ne i64 %20, 0
  br i1 %21, label %22, label %23

22:                                               ; preds = %4
  store i32 -32, ptr %5, align 4
  store i32 1, ptr %11, align 4
  br label %29

23:                                               ; preds = %4
  %24 = load ptr, ptr %10, align 8, !tbaa !54
  %25 = load ptr, ptr %6, align 8, !tbaa !321
  store ptr %24, ptr %25, align 8, !tbaa !54
  %26 = load ptr, ptr %10, align 8, !tbaa !54
  %27 = load ptr, ptr %7, align 8, !tbaa !54
  %28 = load ptr, ptr %9, align 8, !tbaa !66
  call void @pmix_bfrops_base_tma_populate_pstats(ptr noundef %26, ptr noundef %27, ptr noundef %28)
  store i32 0, ptr %5, align 4
  store i32 1, ptr %11, align 4
  br label %29

29:                                               ; preds = %23, %22
  call void @llvm.lifetime.end.p0(i64 8, ptr %10) #15
  %30 = load i32, ptr %5, align 4
  ret i32 %30
}