; Function Attrs: inlinehint mustprogress nofree nounwind willreturn uwtable
define internal fastcc range(i32 -32, 1) i32 @pmix_bfrops_base_tma_copy_pstats(ptr noundef writeonly captures(none) %0, ptr noundef readonly captures(none) %1) unnamed_addr #15 {
  %calloc.i = tail call dereferenceable_or_null(352) ptr @calloc(i64 1, i64 352)
  %3 = icmp eq ptr %calloc.i, null
  br i1 %3, label %51, label %4, !prof !116

4:                                                ; preds = %2
  store ptr %calloc.i, ptr %0, align 8, !tbaa !297
  %5 = load ptr, ptr %1, align 8, !tbaa !102
  %.not.i = icmp eq ptr %5, null
  br i1 %.not.i, label %8, label %6

6:                                                ; preds = %4
  %7 = tail call noalias ptr @strdup(ptr noundef nonnull readonly %5) #24
  store ptr %7, ptr %calloc.i, align 8, !tbaa !102
  br label %8

8:                                                ; preds = %6, %4
  %9 = getelementptr inbounds nuw i8, ptr %calloc.i, i64 8
  %10 = getelementptr inbounds nuw i8, ptr %1, i64 8
  tail call void @llvm.memcpy.p0.p0.i64(ptr noundef nonnull align 8 dereferenceable(260) %9, ptr noundef nonnull readonly align 8 dereferenceable(260) %10, i64 260, i1 false)
  %11 = getelementptr inbounds nuw i8, ptr %1, i64 268
  %12 = load i32, ptr %11, align 4, !tbaa !249
  %13 = getelementptr inbounds nuw i8, ptr %calloc.i, i64 268
  store i32 %12, ptr %13, align 4, !tbaa !249
  %14 = getelementptr inbounds nuw i8, ptr %1, i64 272
  %15 = load ptr, ptr %14, align 8, !tbaa !106
  %.not35.i = icmp eq ptr %15, null
  br i1 %.not35.i, label %pmix_bfrops_base_tma_populate_pstats.exit, label %16

16:                                               ; preds = %8
  %17 = tail call noalias ptr @strdup(ptr noundef nonnull readonly %15) #24
  %18 = getelementptr inbounds nuw i8, ptr %calloc.i, i64 272
  store ptr %17, ptr %18, align 8, !tbaa !106
  br label %pmix_bfrops_base_tma_populate_pstats.exit

pmix_bfrops_base_tma_populate_pstats.exit:        ; preds = %8, %16
  %19 = getelementptr inbounds nuw i8, ptr %1, i64 280
  %20 = load i8, ptr %19, align 8, !tbaa !250
  %21 = getelementptr inbounds nuw i8, ptr %calloc.i, i64 280
  store i8 %20, ptr %21, align 8, !tbaa !250
  %22 = getelementptr inbounds nuw i8, ptr %calloc.i, i64 288
  %23 = getelementptr inbounds nuw i8, ptr %1, i64 288
  tail call void @llvm.memcpy.p0.p0.i64(ptr noundef nonnull align 8 dereferenceable(16) %22, ptr noundef nonnull readonly align 8 dereferenceable(16) %23, i64 16, i1 false), !tbaa.struct !251
  %24 = getelementptr inbounds nuw i8, ptr %1, i64 308
  %25 = load i32, ptr %24, align 4, !tbaa !252
  %26 = getelementptr inbounds nuw i8, ptr %calloc.i, i64 308
  store i32 %25, ptr %26, align 4, !tbaa !252
  %27 = getelementptr inbounds nuw i8, ptr %1, i64 312
  %28 = load i16, ptr %27, align 8, !tbaa !253
  %29 = getelementptr inbounds nuw i8, ptr %calloc.i, i64 312
  store i16 %28, ptr %29, align 8, !tbaa !253
  %30 = getelementptr inbounds nuw i8, ptr %1, i64 316
  %31 = load float, ptr %30, align 4, !tbaa !254
  %32 = getelementptr inbounds nuw i8, ptr %calloc.i, i64 316
  store float %31, ptr %32, align 4, !tbaa !254
  %33 = getelementptr inbounds nuw i8, ptr %1, i64 320
  %34 = load float, ptr %33, align 8, !tbaa !255
  %35 = getelementptr inbounds nuw i8, ptr %calloc.i, i64 320
  store float %34, ptr %35, align 8, !tbaa !255
  %36 = getelementptr inbounds nuw i8, ptr %1, i64 324
  %37 = load float, ptr %36, align 4, !tbaa !256
  %38 = getelementptr inbounds nuw i8, ptr %calloc.i, i64 324
  store float %37, ptr %38, align 4, !tbaa !256
  %39 = getelementptr inbounds nuw i8, ptr %1, i64 328
  %40 = load float, ptr %39, align 8, !tbaa !257
  %41 = getelementptr inbounds nuw i8, ptr %calloc.i, i64 328
  store float %40, ptr %41, align 8, !tbaa !257
  %42 = getelementptr inbounds nuw i8, ptr %1, i64 332
  %43 = load i16, ptr %42, align 4, !tbaa !258
  %44 = getelementptr inbounds nuw i8, ptr %calloc.i, i64 332
  store i16 %43, ptr %44, align 4, !tbaa !258
  %45 = getelementptr inbounds nuw i8, ptr %1, i64 336
  %46 = load i64, ptr %45, align 8, !tbaa !259
  %47 = getelementptr inbounds nuw i8, ptr %calloc.i, i64 336
  store i64 %46, ptr %47, align 8, !tbaa !259
  %48 = getelementptr inbounds nuw i8, ptr %1, i64 344
  %49 = load i64, ptr %48, align 8, !tbaa !260
  %50 = getelementptr inbounds nuw i8, ptr %calloc.i, i64 344
  store i64 %49, ptr %50, align 8, !tbaa !260
  br label %51

51:                                               ; preds = %2, %pmix_bfrops_base_tma_populate_pstats.exit
  %.0 = phi i32 [ 0, %pmix_bfrops_base_tma_populate_pstats.exit ], [ -32, %2 ]
  ret i32 %.0
}